target datalayout = "e-m:e-p270:32:32-p271:32:32-p272:64:64-i64:64-i128:128-f80:128-n8:16:32:64-S128"
target triple = "x86_64-pc-linux-gnu"

@_ZZ7GetWidePKcE8StrTable = internal global [4 x [2048 x i32]] zeroinitializer, align 16
@_ZZ7GetWidePKcE6StrNum = internal global i32 0, align 4

; Function Attrs: mustprogress uwtable
define noundef ptr @_Z7GetWidePKc(ptr noundef %0) #1 {
  %2 = alloca ptr, align 8
  %3 = alloca i64, align 8
  %4 = alloca ptr, align 8
  store ptr %0, ptr %2, align 8
  store i64 2048, ptr %3, align 8
  %5 = load i32, ptr @_ZZ7GetWidePKcE6StrNum, align 4
  %6 = add i32 %5, 1
  store i32 %6, ptr @_ZZ7GetWidePKcE6StrNum, align 4
  %7 = zext i32 %6 to i64
  %8 = icmp uge i64 %7, 4
  br i1 %8, label %9, label %10

9:                                                ; preds = %1
  store i32 0, ptr @_ZZ7GetWidePKcE6StrNum, align 4
  br label %10

10:                                               ; preds = %9, %1
  %11 = load i32, ptr @_ZZ7GetWidePKcE6StrNum, align 4
  %12 = zext i32 %11 to i64
  %13 = getelementptr inbounds [4 x [2048 x i32]], ptr @_ZZ7GetWidePKcE8StrTable, i64 0, i64 %12
  %14 = getelementptr inbounds [2048 x i32], ptr %13, i64 0, i64 0
  store ptr %14, ptr %4, align 8
  %15 = load ptr, ptr %2, align 8
  %16 = load ptr, ptr %4, align 8
  %17 = call noundef zeroext i1 @_Z10CharToWidePKcPwm(ptr noundef %15, ptr noundef %16, i64 noundef 2048)
  %18 = load ptr, ptr %4, align 8
  %19 = getelementptr inbounds i32, ptr %18, i64 2047
  store i32 0, ptr %19, align 4
  %20 = load ptr, ptr %4, align 8
  ret ptr %20
}