; Function Attrs: mustprogress uwtable
define noundef nonnull ptr @_Z7GetWidePKc(ptr noundef %0) local_unnamed_addr #2 {
  %2 = load i32, ptr @_ZZ7GetWidePKcE6StrNum, align 4
  %3 = add i32 %2, 1
  %4 = icmp ugt i32 %3, 3
  %spec.store.select = select i1 %4, i32 0, i32 %3
  store i32 %spec.store.select, ptr @_ZZ7GetWidePKcE6StrNum, align 4
  %5 = zext i32 %spec.store.select to i64
  %6 = getelementptr inbounds [4 x [2048 x i32]], ptr @_ZZ7GetWidePKcE8StrTable, i64 0, i64 %5
  %7 = tail call noundef zeroext i1 @_Z10CharToWidePKcPwm(ptr noundef %0, ptr noundef nonnull %6, i64 noundef 2048)
  %8 = getelementptr inbounds i8, ptr %6, i64 8188
  store i32 0, ptr %8, align 4
  ret ptr %6
}